#include <math.h>
#include <stdio.h>
#include <stdlib.h>
#include <string.h>
#include <iostream>
using namespace std;

int main()
{
    int A,B,C,D,E;
    for(A=1;A<=5;A++)
    for(B=1;B<=5;B++)
    for(C=1;C<=5;C++)
    for(D=1;D<=5;D++)
    for(E=1;E<=5;E++)
    {
        if(((E!=2)+(E!=3)==2)&&((A!=B)+(A!=C)+(A!=D)+(A!=E)+(B!=C)+(B!=D)+(B!=E)+(C!=D)+(C!=E)+(D!=E)==10)&&((E==1)+(B==2)+(A==5)+(C!=1)+(D==1)==2)&&((A==5)+(B==2)+(C==1)+(D==3)==4))
        cout<<A<<" "<<B<<" "<<C<<" "<<D<<" "<<E;
    }
              return 0;
        }
    