; ModuleID = '41/1083.cpp'
source_filename = "41/1083.cpp"
target datalayout = "e-m:e-p270:32:32-p271:32:32-p272:64:64-i64:64-f80:128-n8:16:32:64-S128"
target triple = "x86_64-pc-linux-gnu"

%"class.std::ios_base::Init" = type { i8 }
%"class.std::basic_ostream" = type { i32 (...)**, %"class.std::basic_ios" }
%"class.std::basic_ios" = type { %"class.std::ios_base", %"class.std::basic_ostream"*, i8, i8, %"class.std::basic_streambuf"*, %"class.std::ctype"*, %"class.std::num_put"*, %"class.std::num_get"* }
%"class.std::ios_base" = type { i32 (...)**, i64, i64, i32, i32, i32, %"struct.std::ios_base::_Callback_list"*, %"struct.std::ios_base::_Words", [8 x %"struct.std::ios_base::_Words"], i32, %"struct.std::ios_base::_Words"*, %"class.std::locale" }
%"struct.std::ios_base::_Callback_list" = type { %"struct.std::ios_base::_Callback_list"*, void (i32, %"class.std::ios_base"*, i32)*, i32, i32 }
%"struct.std::ios_base::_Words" = type { i8*, i64 }
%"class.std::locale" = type { %"class.std::locale::_Impl"* }
%"class.std::locale::_Impl" = type { i32, %"class.std::locale::facet"**, i64, %"class.std::locale::facet"**, i8** }
%"class.std::locale::facet" = type <{ i32 (...)**, i32, [4 x i8] }>
%"class.std::basic_streambuf" = type { i32 (...)**, i8*, i8*, i8*, i8*, i8*, i8*, %"class.std::locale" }
%"class.std::ctype" = type <{ %"class.std::locale::facet.base", [4 x i8], %struct.__locale_struct*, i8, [7 x i8], i32*, i32*, i16*, i8, [256 x i8], [256 x i8], i8, [6 x i8] }>
%"class.std::locale::facet.base" = type <{ i32 (...)**, i32 }>
%struct.__locale_struct = type { [13 x %struct.__locale_data*], i16*, i32*, i32*, [13 x i8*] }
%struct.__locale_data = type opaque
%"class.std::num_put" = type { %"class.std::locale::facet.base", [4 x i8] }
%"class.std::num_get" = type { %"class.std::locale::facet.base", [4 x i8] }

@_ZStL8__ioinit = internal global %"class.std::ios_base::Init" zeroinitializer, align 1
@__dso_handle = external hidden global i8
@_ZSt4cout = external dso_local global %"class.std::basic_ostream", align 8
@.str = private unnamed_addr constant [2 x i8] c" \00", align 1
@llvm.global_ctors = appending global [1 x { i32, void ()*, i8* }] [{ i32, void ()*, i8* } { i32 65535, void ()* @_GLOBAL__sub_I_1083.cpp, i8* null }]

; Function Attrs: noinline uwtable
define internal void @__cxx_global_var_init() #0 section ".text.startup" {
  call void @_ZNSt8ios_base4InitC1Ev(%"class.std::ios_base::Init"* @_ZStL8__ioinit)
  %1 = call i32 @__cxa_atexit(void (i8*)* bitcast (void (%"class.std::ios_base::Init"*)* @_ZNSt8ios_base4InitD1Ev to void (i8*)*), i8* getelementptr inbounds (%"class.std::ios_base::Init", %"class.std::ios_base::Init"* @_ZStL8__ioinit, i32 0, i32 0), i8* @__dso_handle) #3
  ret void
}

declare dso_local void @_ZNSt8ios_base4InitC1Ev(%"class.std::ios_base::Init"*) unnamed_addr #1

; Function Attrs: nounwind
declare dso_local void @_ZNSt8ios_base4InitD1Ev(%"class.std::ios_base::Init"*) unnamed_addr #2

; Function Attrs: nounwind
declare dso_local i32 @__cxa_atexit(void (i8*)*, i8*, i8*) #3

; Function Attrs: noinline norecurse uwtable
define dso_local i32 @main() #4 {
  %1 = alloca i32, align 4
  %2 = alloca i32, align 4
  %3 = alloca i32, align 4
  %4 = alloca i32, align 4
  %5 = alloca i32, align 4
  %6 = alloca i32, align 4
  store i32 0, i32* %1, align 4
  store i32 1, i32* %2, align 4
  br label %7

7:                                                ; preds = %156, %0
  %8 = load i32, i32* %2, align 4
  %9 = icmp sle i32 %8, 5
  br i1 %9, label %10, label %159

10:                                               ; preds = %7
  store i32 1, i32* %3, align 4
  br label %11

11:                                               ; preds = %152, %10
  %12 = load i32, i32* %3, align 4
  %13 = icmp sle i32 %12, 5
  br i1 %13, label %14, label %155

14:                                               ; preds = %11
  store i32 1, i32* %4, align 4
  br label %15

15:                                               ; preds = %148, %14
  %16 = load i32, i32* %4, align 4
  %17 = icmp sle i32 %16, 5
  br i1 %17, label %18, label %151

18:                                               ; preds = %15
  store i32 1, i32* %5, align 4
  br label %19

19:                                               ; preds = %144, %18
  %20 = load i32, i32* %5, align 4
  %21 = icmp sle i32 %20, 5
  br i1 %21, label %22, label %147

22:                                               ; preds = %19
  store i32 1, i32* %6, align 4
  br label %23

23:                                               ; preds = %140, %22
  %24 = load i32, i32* %6, align 4
  %25 = icmp sle i32 %24, 5
  br i1 %25, label %26, label %143

26:                                               ; preds = %23
  %27 = load i32, i32* %6, align 4
  %28 = icmp ne i32 %27, 2
  %29 = zext i1 %28 to i32
  %30 = load i32, i32* %6, align 4
  %31 = icmp ne i32 %30, 3
  %32 = zext i1 %31 to i32
  %33 = add nsw i32 %29, %32
  %34 = icmp eq i32 %33, 2
  br i1 %34, label %35, label %139

35:                                               ; preds = %26
  %36 = load i32, i32* %2, align 4
  %37 = load i32, i32* %3, align 4
  %38 = icmp ne i32 %36, %37
  %39 = zext i1 %38 to i32
  %40 = load i32, i32* %2, align 4
  %41 = load i32, i32* %4, align 4
  %42 = icmp ne i32 %40, %41
  %43 = zext i1 %42 to i32
  %44 = add nsw i32 %39, %43
  %45 = load i32, i32* %2, align 4
  %46 = load i32, i32* %5, align 4
  %47 = icmp ne i32 %45, %46
  %48 = zext i1 %47 to i32
  %49 = add nsw i32 %44, %48
  %50 = load i32, i32* %2, align 4
  %51 = load i32, i32* %6, align 4
  %52 = icmp ne i32 %50, %51
  %53 = zext i1 %52 to i32
  %54 = add nsw i32 %49, %53
  %55 = load i32, i32* %3, align 4
  %56 = load i32, i32* %4, align 4
  %57 = icmp ne i32 %55, %56
  %58 = zext i1 %57 to i32
  %59 = add nsw i32 %54, %58
  %60 = load i32, i32* %3, align 4
  %61 = load i32, i32* %5, align 4
  %62 = icmp ne i32 %60, %61
  %63 = zext i1 %62 to i32
  %64 = add nsw i32 %59, %63
  %65 = load i32, i32* %3, align 4
  %66 = load i32, i32* %6, align 4
  %67 = icmp ne i32 %65, %66
  %68 = zext i1 %67 to i32
  %69 = add nsw i32 %64, %68
  %70 = load i32, i32* %4, align 4
  %71 = load i32, i32* %5, align 4
  %72 = icmp ne i32 %70, %71
  %73 = zext i1 %72 to i32
  %74 = add nsw i32 %69, %73
  %75 = load i32, i32* %4, align 4
  %76 = load i32, i32* %6, align 4
  %77 = icmp ne i32 %75, %76
  %78 = zext i1 %77 to i32
  %79 = add nsw i32 %74, %78
  %80 = load i32, i32* %5, align 4
  %81 = load i32, i32* %6, align 4
  %82 = icmp ne i32 %80, %81
  %83 = zext i1 %82 to i32
  %84 = add nsw i32 %79, %83
  %85 = icmp eq i32 %84, 10
  br i1 %85, label %86, label %139

86:                                               ; preds = %35
  %87 = load i32, i32* %6, align 4
  %88 = icmp eq i32 %87, 1
  %89 = zext i1 %88 to i32
  %90 = load i32, i32* %3, align 4
  %91 = icmp eq i32 %90, 2
  %92 = zext i1 %91 to i32
  %93 = add nsw i32 %89, %92
  %94 = load i32, i32* %2, align 4
  %95 = icmp eq i32 %94, 5
  %96 = zext i1 %95 to i32
  %97 = add nsw i32 %93, %96
  %98 = load i32, i32* %4, align 4
  %99 = icmp ne i32 %98, 1
  %100 = zext i1 %99 to i32
  %101 = add nsw i32 %97, %100
  %102 = load i32, i32* %5, align 4
  %103 = icmp eq i32 %102, 1
  %104 = zext i1 %103 to i32
  %105 = add nsw i32 %101, %104
  %106 = icmp eq i32 %105, 2
  br i1 %106, label %107, label %139

107:                                              ; preds = %86
  %108 = load i32, i32* %2, align 4
  %109 = icmp eq i32 %108, 5
  %110 = zext i1 %109 to i32
  %111 = load i32, i32* %3, align 4
  %112 = icmp eq i32 %111, 2
  %113 = zext i1 %112 to i32
  %114 = add nsw i32 %110, %113
  %115 = load i32, i32* %4, align 4
  %116 = icmp eq i32 %115, 1
  %117 = zext i1 %116 to i32
  %118 = add nsw i32 %114, %117
  %119 = load i32, i32* %5, align 4
  %120 = icmp eq i32 %119, 3
  %121 = zext i1 %120 to i32
  %122 = add nsw i32 %118, %121
  %123 = icmp eq i32 %122, 4
  br i1 %123, label %124, label %139

124:                                              ; preds = %107
  %125 = load i32, i32* %2, align 4
  %126 = call dereferenceable(272) %"class.std::basic_ostream"* @_ZNSolsEi(%"class.std::basic_ostream"* @_ZSt4cout, i32 %125)
  %127 = call dereferenceable(272) %"class.std::basic_ostream"* @_ZStlsISt11char_traitsIcEERSt13basic_ostreamIcT_ES5_PKc(%"class.std::basic_ostream"* dereferenceable(272) %126, i8* getelementptr inbounds ([2 x i8], [2 x i8]* @.str, i64 0, i64 0))
  %128 = load i32, i32* %3, align 4
  %129 = call dereferenceable(272) %"class.std::basic_ostream"* @_ZNSolsEi(%"class.std::basic_ostream"* %127, i32 %128)
  %130 = call dereferenceable(272) %"class.std::basic_ostream"* @_ZStlsISt11char_traitsIcEERSt13basic_ostreamIcT_ES5_PKc(%"class.std::basic_ostream"* dereferenceable(272) %129, i8* getelementptr inbounds ([2 x i8], [2 x i8]* @.str, i64 0, i64 0))
  %131 = load i32, i32* %4, align 4
  %132 = call dereferenceable(272) %"class.std::basic_ostream"* @_ZNSolsEi(%"class.std::basic_ostream"* %130, i32 %131)
  %133 = call dereferenceable(272) %"class.std::basic_ostream"* @_ZStlsISt11char_traitsIcEERSt13basic_ostreamIcT_ES5_PKc(%"class.std::basic_ostream"* dereferenceable(272) %132, i8* getelementptr inbounds ([2 x i8], [2 x i8]* @.str, i64 0, i64 0))
  %134 = load i32, i32* %5, align 4
  %135 = call dereferenceable(272) %"class.std::basic_ostream"* @_ZNSolsEi(%"class.std::basic_ostream"* %133, i32 %134)
  %136 = call dereferenceable(272) %"class.std::basic_ostream"* @_ZStlsISt11char_traitsIcEERSt13basic_ostreamIcT_ES5_PKc(%"class.std::basic_ostream"* dereferenceable(272) %135, i8* getelementptr inbounds ([2 x i8], [2 x i8]* @.str, i64 0, i64 0))
  %137 = load i32, i32* %6, align 4
  %138 = call dereferenceable(272) %"class.std::basic_ostream"* @_ZNSolsEi(%"class.std::basic_ostream"* %136, i32 %137)
  br label %139

139:                                              ; preds = %124, %107, %86, %35, %26
  br label %140

140:                                              ; preds = %139
  %141 = load i32, i32* %6, align 4
  %142 = add nsw i32 %141, 1
  store i32 %142, i32* %6, align 4
  br label %23

143:                                              ; preds = %23
  br label %144

144:                                              ; preds = %143
  %145 = load i32, i32* %5, align 4
  %146 = add nsw i32 %145, 1
  store i32 %146, i32* %5, align 4
  br label %19

147:                                              ; preds = %19
  br label %148

148:                                              ; preds = %147
  %149 = load i32, i32* %4, align 4
  %150 = add nsw i32 %149, 1
  store i32 %150, i32* %4, align 4
  br label %15

151:                                              ; preds = %15
  br label %152

152:                                              ; preds = %151
  %153 = load i32, i32* %3, align 4
  %154 = add nsw i32 %153, 1
  store i32 %154, i32* %3, align 4
  br label %11

155:                                              ; preds = %11
  br label %156

156:                                              ; preds = %155
  %157 = load i32, i32* %2, align 4
  %158 = add nsw i32 %157, 1
  store i32 %158, i32* %2, align 4
  br label %7

159:                                              ; preds = %7
  ret i32 0
}

declare dso_local dereferenceable(272) %"class.std::basic_ostream"* @_ZStlsISt11char_traitsIcEERSt13basic_ostreamIcT_ES5_PKc(%"class.std::basic_ostream"* dereferenceable(272), i8*) #1

declare dso_local dereferenceable(272) %"class.std::basic_ostream"* @_ZNSolsEi(%"class.std::basic_ostream"*, i32) #1

; Function Attrs: noinline uwtable
define internal void @_GLOBAL__sub_I_1083.cpp() #0 section ".text.startup" {
  call void @__cxx_global_var_init()
  ret void
}


!llvm.module.flags = !{!0}
!llvm.ident = !{!1}

!0 = !{i32 1, !"wchar_size", i32 4}
!1 = !{!"clang version 10.0.0-4ubuntu1 "}
